target datalayout = "e-m:e-p270:32:32-p271:32:32-p272:64:64-i64:64-i128:128-f80:128-n8:16:32:64-S128"
target triple = "x86_64-pc-linux-gnu"

%struct._pbadv_fragment_key = type { i32, i8 }

; Function Attrs: nounwind null_pointer_is_valid sspstrong uwtable
define internal i32 @pbadv_fragment_equal(ptr noundef %0, ptr noundef %1) #3 {
  %3 = alloca ptr, align 8
  %4 = alloca ptr, align 8
  %5 = alloca ptr, align 8
  %6 = alloca ptr, align 8
  store ptr %0, ptr %3, align 8
  store ptr %1, ptr %4, align 8
  call void @llvm.lifetime.start.p0(i64 8, ptr %5) #5
  %7 = load ptr, ptr %3, align 8
  store ptr %7, ptr %5, align 8
  call void @llvm.lifetime.start.p0(i64 8, ptr %6) #5
  %8 = load ptr, ptr %4, align 8
  store ptr %8, ptr %6, align 8
  %9 = load ptr, ptr %5, align 8
  %10 = getelementptr inbounds nuw %struct._pbadv_fragment_key, ptr %9, i32 0, i32 0
  %11 = load i32, ptr %10, align 4
  %12 = load ptr, ptr %6, align 8
  %13 = getelementptr inbounds nuw %struct._pbadv_fragment_key, ptr %12, i32 0, i32 0
  %14 = load i32, ptr %13, align 4
  %15 = icmp eq i32 %11, %14
  br i1 %15, label %16, label %26

16:                                               ; preds = %2
  %17 = load ptr, ptr %5, align 8
  %18 = getelementptr inbounds nuw %struct._pbadv_fragment_key, ptr %17, i32 0, i32 1
  %19 = load i8, ptr %18, align 4
  %20 = zext i8 %19 to i32
  %21 = load ptr, ptr %6, align 8
  %22 = getelementptr inbounds nuw %struct._pbadv_fragment_key, ptr %21, i32 0, i32 1
  %23 = load i8, ptr %22, align 4
  %24 = zext i8 %23 to i32
  %25 = icmp eq i32 %20, %24
  br label %26

26:                                               ; preds = %16, %2
  %27 = phi i1 [ false, %2 ], [ %25, %16 ]
  %28 = select i1 %27, i32 1, i32 0
  call void @llvm.lifetime.end.p0(i64 8, ptr %6) #5
  call void @llvm.lifetime.end.p0(i64 8, ptr %5) #5
  ret i32 %28
}